target datalayout = "e-m:e-p270:32:32-p271:32:32-p272:64:64-i64:64-i128:128-f80:128-n8:16:32:64-S128"
target triple = "x86_64-pc-linux-gnu"

%"class.std::__cxx11::basic_string" = type { %"struct.std::__cxx11::basic_string<char>::_Alloc_hider", i64, %union.anon }
%"struct.std::__cxx11::basic_string<char>::_Alloc_hider" = type { ptr }
%union.anon = type { i64, [8 x i8] }
%"class.duckdb_apache::thrift::TBase" = type { ptr }
%"class.duckdb_parquet::Statistics" = type <{ %"class.duckdb_apache::thrift::TBase", %"class.std::__cxx11::basic_string", %"class.std::__cxx11::basic_string", i64, i64, %"class.std::__cxx11::basic_string", %"class.std::__cxx11::basic_string", i8, i8, %"struct.duckdb_parquet::_Statistics__isset", [5 x i8] }>
%"struct.duckdb_parquet::_Statistics__isset" = type { i8 }
%"class.duckdb_parquet::DataPageHeader" = type <{ %"class.duckdb_apache::thrift::TBase", i32, i32, i32, i32, %"class.duckdb_parquet::Statistics", %"struct.duckdb_parquet::_DataPageHeader__isset", [7 x i8] }>
%"struct.duckdb_parquet::_DataPageHeader__isset" = type { i8 }
%"class.duckdb_parquet::DictionaryPageHeader" = type <{ %"class.duckdb_apache::thrift::TBase", i32, i32, i8, %"struct.duckdb_parquet::_DictionaryPageHeader__isset", [6 x i8] }>
%"struct.duckdb_parquet::_DictionaryPageHeader__isset" = type { i8 }
%"class.duckdb_parquet::DataPageHeaderV2" = type <{ %"class.duckdb_apache::thrift::TBase", i32, i32, i32, i32, i32, i32, i8, [7 x i8], %"class.duckdb_parquet::Statistics", %"struct.duckdb_parquet::_DataPageHeaderV2__isset", [7 x i8] }>
%"struct.duckdb_parquet::_DataPageHeaderV2__isset" = type { i8 }
%"class.duckdb_parquet::PageHeader" = type <{ %"class.duckdb_apache::thrift::TBase", i32, i32, i32, i32, %"class.duckdb_parquet::DataPageHeader", %"class.duckdb_parquet::IndexPageHeader", %"class.duckdb_parquet::DictionaryPageHeader", %"class.duckdb_parquet::DataPageHeaderV2", %"struct.duckdb_parquet::_PageHeader__isset", [7 x i8] }>
%"class.duckdb_parquet::IndexPageHeader" = type { %"class.duckdb_apache::thrift::TBase" }
%"struct.duckdb_parquet::_PageHeader__isset" = type { i8 }

; Function Attrs: mustprogress nounwind uwtable
define noundef nonnull align 8 dereferenceable(18) ptr @_ZN14duckdb_parquet20DictionaryPageHeaderaSERKS0_(ptr noundef nonnull align 8 dereferenceable(18) %0, ptr noundef nonnull align 8 dereferenceable(18) %1) #1 align 2 {
  %3 = alloca ptr, align 8
  %4 = alloca ptr, align 8
  store ptr %0, ptr %3, align 8, !tbaa !256
  store ptr %1, ptr %4, align 8, !tbaa !256
  %5 = load ptr, ptr %3, align 8
  %6 = load ptr, ptr %4, align 8, !tbaa !256
  %7 = getelementptr inbounds nuw %"class.duckdb_parquet::DictionaryPageHeader", ptr %6, i32 0, i32 1
  %8 = load i32, ptr %7, align 8, !tbaa !258
  %9 = getelementptr inbounds nuw %"class.duckdb_parquet::DictionaryPageHeader", ptr %5, i32 0, i32 1
  store i32 %8, ptr %9, align 8, !tbaa !258
  %10 = load ptr, ptr %4, align 8, !tbaa !256
  %11 = getelementptr inbounds nuw %"class.duckdb_parquet::DictionaryPageHeader", ptr %10, i32 0, i32 2
  %12 = load i32, ptr %11, align 4, !tbaa !261
  %13 = getelementptr inbounds nuw %"class.duckdb_parquet::DictionaryPageHeader", ptr %5, i32 0, i32 2
  store i32 %12, ptr %13, align 4, !tbaa !261
  %14 = load ptr, ptr %4, align 8, !tbaa !256
  %15 = getelementptr inbounds nuw %"class.duckdb_parquet::DictionaryPageHeader", ptr %14, i32 0, i32 3
  %16 = load i8, ptr %15, align 8, !tbaa !262, !range !46, !noundef !47
  %17 = trunc i8 %16 to i1
  %18 = getelementptr inbounds nuw %"class.duckdb_parquet::DictionaryPageHeader", ptr %5, i32 0, i32 3
  %19 = zext i1 %17 to i8
  store i8 %19, ptr %18, align 8, !tbaa !262
  %20 = load ptr, ptr %4, align 8, !tbaa !256
  %21 = getelementptr inbounds nuw %"class.duckdb_parquet::DictionaryPageHeader", ptr %20, i32 0, i32 4
  %22 = getelementptr inbounds nuw %"class.duckdb_parquet::DictionaryPageHeader", ptr %5, i32 0, i32 4
  call void @llvm.memcpy.p0.p0.i64(ptr align 1 %22, ptr align 1 %21, i64 1, i1 false), !tbaa.struct !111
  ret ptr %5
}

; Function Attrs: mustprogress nounwind uwtable
define void @_ZN14duckdb_parquet10PageHeader28__set_dictionary_page_headerERKNS_20DictionaryPageHeaderE(ptr noundef nonnull align 8 dereferenceable(457) %0, ptr noundef nonnull align 8 dereferenceable(18) %1) #1 align 2 {
  %3 = alloca ptr, align 8
  %4 = alloca ptr, align 8
  store ptr %0, ptr %3, align 8, !tbaa !318
  store ptr %1, ptr %4, align 8, !tbaa !256
  %5 = load ptr, ptr %3, align 8
  %6 = load ptr, ptr %4, align 8, !tbaa !256
  %7 = getelementptr inbounds nuw %"class.duckdb_parquet::PageHeader", ptr %5, i32 0, i32 7
  %8 = call noundef nonnull align 8 dereferenceable(18) ptr @_ZN14duckdb_parquet20DictionaryPageHeaderaSERKS0_(ptr noundef nonnull align 8 dereferenceable(18) %7, ptr noundef nonnull align 8 dereferenceable(18) %6) #3
  %9 = getelementptr inbounds nuw %"class.duckdb_parquet::PageHeader", ptr %5, i32 0, i32 9
  %10 = load i8, ptr %9, align 8
  %11 = and i8 %10, -9
  %12 = or i8 %11, 8
  store i8 %12, ptr %9, align 8
  ret void
}