; Function Attrs: mustprogress nofree norecurse nosync nounwind willreturn memory(argmem: readwrite) uwtable
define void @_ZN14duckdb_parquet10PageHeader28__set_dictionary_page_headerERKNS_20DictionaryPageHeaderE(ptr noundef nonnull align 8 captures(none) dereferenceable(457) initializes((232, 242)) %0, ptr noundef nonnull readonly align 8 captures(none) dereferenceable(18) %1) local_unnamed_addr #10 align 2 {
  %3 = getelementptr inbounds nuw i8, ptr %1, i64 8
  %4 = load i32, ptr %3, align 8, !tbaa !374
  %5 = getelementptr inbounds nuw i8, ptr %0, i64 232
  store i32 %4, ptr %5, align 8, !tbaa !374
  %6 = getelementptr inbounds nuw i8, ptr %1, i64 12
  %7 = load i32, ptr %6, align 4, !tbaa !377
  %8 = getelementptr inbounds nuw i8, ptr %0, i64 236
  store i32 %7, ptr %8, align 4, !tbaa !377
  %9 = getelementptr inbounds nuw i8, ptr %1, i64 16
  %10 = load i8, ptr %9, align 8, !tbaa !378, !range !137, !noundef !138
  %11 = getelementptr inbounds nuw i8, ptr %0, i64 240
  store i8 %10, ptr %11, align 8, !tbaa !378
  %12 = getelementptr inbounds nuw i8, ptr %1, i64 17
  %13 = getelementptr inbounds nuw i8, ptr %0, i64 241
  %14 = load i8, ptr %12, align 1, !tbaa !38
  store i8 %14, ptr %13, align 1, !tbaa !38
  %15 = getelementptr inbounds nuw i8, ptr %0, i64 456
  %16 = load i8, ptr %15, align 8
  %17 = or i8 %16, 8
  store i8 %17, ptr %15, align 8
  ret void
}